; Function Attrs: mustprogress uwtable
define noundef double @_ZNK8QuantLib19FdmSimple2dBSSolver7deltaAtEddd(ptr noundef nonnull align 8 dereferenceable(176) %this, double noundef %s, double noundef %a, double noundef %eps) local_unnamed_addr #1 align 2 {
entry:
  %add = fadd double %s, %eps
  %vtable.i = load ptr, ptr %this, align 8, !tbaa !14
  %vfn.i = getelementptr inbounds i8, ptr %vtable.i, i64 24
  %0 = load ptr, ptr %vfn.i, align 8
  tail call void %0(ptr noundef nonnull align 8 dereferenceable(12) %this)
  %solver_.i = getelementptr inbounds nuw i8, ptr %this, i64 160
  %1 = load ptr, ptr %solver_.i, align 8, !tbaa !88
  %cmp.not.i.i = icmp eq ptr %1, null
  br i1 %cmp.not.i.i, label %cond.false.i.i, label %_ZNK8QuantLib19FdmSimple2dBSSolver7valueAtEdd.exit, !prof !66

cond.false.i.i:                                   ; preds = %entry
  tail call void @_ZN5boost16assertion_failedEPKcS1_S1_l(ptr noundef nonnull @.str.10, ptr noundef nonnull @__PRETTY_FUNCTION__._ZNK5boost10shared_ptrIN8QuantLib13Fdm2DimSolverEEptEv, ptr noundef nonnull @.str.11, i64 noundef 784)
  %.pre.i.i = load ptr, ptr %solver_.i, align 8, !tbaa !88
  br label %_ZNK8QuantLib19FdmSimple2dBSSolver7valueAtEdd.exit

_ZNK8QuantLib19FdmSimple2dBSSolver7valueAtEdd.exit: ; preds = %entry, %cond.false.i.i
  %2 = phi ptr [ %1, %entry ], [ %.pre.i.i, %cond.false.i.i ]
  %call2.i = tail call double @log(double noundef %add) #28, !tbaa !107
  %call3.i = tail call double @log(double noundef %a) #28, !tbaa !107
  %call4.i = tail call noundef double @_ZNK8QuantLib13Fdm2DimSolver13interpolateAtEdd(ptr noundef nonnull align 8 dereferenceable(296) %2, double noundef %call2.i, double noundef %call3.i)
  %vtable.i5 = load ptr, ptr %this, align 8, !tbaa !14
  %vfn.i6 = getelementptr inbounds i8, ptr %vtable.i5, i64 24
  %3 = load ptr, ptr %vfn.i6, align 8
  tail call void %3(ptr noundef nonnull align 8 dereferenceable(12) %this)
  %4 = load ptr, ptr %solver_.i, align 8, !tbaa !88
  %cmp.not.i.i8 = icmp eq ptr %4, null
  br i1 %cmp.not.i.i8, label %cond.false.i.i12, label %_ZNK8QuantLib19FdmSimple2dBSSolver7valueAtEdd.exit14, !prof !66

cond.false.i.i12:                                 ; preds = %_ZNK8QuantLib19FdmSimple2dBSSolver7valueAtEdd.exit
  tail call void @_ZN5boost16assertion_failedEPKcS1_S1_l(ptr noundef nonnull @.str.10, ptr noundef nonnull @__PRETTY_FUNCTION__._ZNK5boost10shared_ptrIN8QuantLib13Fdm2DimSolverEEptEv, ptr noundef nonnull @.str.11, i64 noundef 784)
  %.pre.i.i13 = load ptr, ptr %solver_.i, align 8, !tbaa !88
  br label %_ZNK8QuantLib19FdmSimple2dBSSolver7valueAtEdd.exit14

_ZNK8QuantLib19FdmSimple2dBSSolver7valueAtEdd.exit14: ; preds = %_ZNK8QuantLib19FdmSimple2dBSSolver7valueAtEdd.exit, %cond.false.i.i12
  %5 = phi ptr [ %4, %_ZNK8QuantLib19FdmSimple2dBSSolver7valueAtEdd.exit ], [ %.pre.i.i13, %cond.false.i.i12 ]
  %sub = fsub double %s, %eps
  %call2.i9 = tail call double @log(double noundef %sub) #28, !tbaa !107
  %call3.i10 = tail call double @log(double noundef %a) #28, !tbaa !107
  %call4.i11 = tail call noundef double @_ZNK8QuantLib13Fdm2DimSolver13interpolateAtEdd(ptr noundef nonnull align 8 dereferenceable(296) %5, double noundef %call2.i9, double noundef %call3.i10)
  %sub3 = fsub double %call4.i, %call4.i11
  %mul = fmul double %eps, 2.000000e+00
  %div = fdiv double %sub3, %mul
  ret double %div
}